Certificate:
    Data:
        Version: 3 (0x2)
        Serial Number:
            26:7a:7e:31:86:7a:15:39:8e:d9:cf:7c:ac:ff:d9:8d:41:7b:97:b0
        Signature Algorithm: sha256WithRSAEncryption
        Issuer: CN = mnemos-db
        Validity
            Not Before: Jan  8 15:12:13 2026 GMT
            Not After : Jan  6 15:12:13 2036 GMT
        Subject: CN = mnemos-db
        Subject Public Key Info:
            Public Key Algorithm: rsaEncryption
                Public-Key: (2048 bit)
                Modulus:
                    00:b7:af:19:ba:e2:42:3b:a2:3f:65:be:a6:af:f7:
                    0f:4a:3b:c2:b2:2a:7f:d8:7c:64:2b:52:bd:df:1b:
                    df:ef:57:56:4a:79:af:43:84:f2:f8:b7:91:93:13:
                    8f:72:73:90:ae:cd:e0:47:d5:c4:d8:67:97:e5:39:
                    5f:12:73:4c:3a:ba:3b:c6:6f:05:72:47:7e:a1:9e:
                    4c:ba:ba:d4:c3:7f:7d:7d:1e:75:17:58:11:5d:27:
                    b6:fa:41:a2:21:5c:2b:c5:47:0a:76:83:5b:3d:f7:
                    81:ef:0a:a5:cb:0a:4c:b2:13:be:56:d2:ec:48:98:
                    fb:e8:b1:15:4f:a3:f8:44:a3:eb:fd:4e:e9:d3:fa:
                    90:fc:3c:69:2d:a8:1c:64:c7:16:86:55:6c:b5:38:
                    90:35:cf:d1:b7:7e:f5:4f:b6:ab:af:12:aa:d6:10:
                    eb:b3:d5:59:5f:be:6d:b0:08:e8:58:30:76:39:e3:
                    41:5f:6f:0a:af:93:94:e4:f2:c7:2a:f3:06:9d:99:
                    c3:af:02:2d:c4:85:dd:5a:db:86:31:78:f1:c1:01:
                    99:e6:96:1f:1d:7f:29:93:92:a0:02:3e:20:59:2d:
                    3e:0e:6e:15:57:71:2e:f3:ce:47:e6:86:1e:e1:00:
                    79:40:37:99:37:71:f1:16:4f:8a:58:99:6c:63:b7:
                    0a:91
                Exponent: 65537 (0x10001)
        X509v3 extensions:
            X509v3 Subject Key Identifier: 
                80:AD:26:43:F4:DD:58:89:8E:C3:91:9A:EB:07:12:44:41:F0:15:00
            X509v3 Authority Key Identifier: 
                80:AD:26:43:F4:DD:58:89:8E:C3:91:9A:EB:07:12:44:41:F0:15:00
            X509v3 Basic Constraints: critical
                CA:TRUE
            X509v3 Subject Alternative Name: 
                IP Address:84.247.172.213
    Signature Algorithm: sha256WithRSAEncryption
    Signature Value:
        07:5a:56:a2:0e:3a:2d:48:74:fa:31:a8:9b:19:21:42:94:a0:
        1b:5d:0d:07:53:b6:b8:64:f5:58:b8:3e:54:03:28:b7:1c:23:
        9b:04:8c:ca:3f:cf:07:e4:70:3f:d5:1b:74:b8:cb:4d:20:18:
        d9:21:82:fd:23:ce:be:0b:2f:4a:08:5c:f3:79:84:13:cb:40:
        b7:65:d6:1d:f3:e5:52:b9:3a:f7:e2:34:e7:e6:80:1b:9e:3d:
        e5:4c:bf:fd:6d:d1:b7:3a:56:f1:6a:38:83:c5:68:1a:54:ab:
        9e:5d:21:06:aa:06:55:cd:58:a1:31:ba:ed:c5:51:44:71:04:
        94:59:38:d8:cf:5b:fa:4f:c3:8f:51:7c:3b:05:a8:ec:3d:1e:
        ed:39:3a:12:b1:f0:1a:ee:db:9c:cb:68:f1:72:dd:f6:de:4e:
        e3:42:38:6a:c7:33:b2:ac:4e:44:3d:2d:81:4c:27:71:a5:b7:
        b1:c4:f7:9e:bc:ee:b3:9e:4d:10:b3:97:62:4b:55:27:da:6c:
        13:8b:8c:d8:4c:82:2b:40:5c:0e:69:27:43:77:c2:a1:d2:74:
        b4:f2:bd:f0:21:be:9f:15:62:32:f9:f3:ff:32:0f:8c:8c:04:
        57:6e:e0:a2:03:55:00:ae:20:0d:15:d1:b4:09:4a:a9:ee:1b:
        1d:e9:a3:76
-----BEGIN CERTIFICATE-----
MIIDGjCCAgKgAwIBAgIUJnp+MYZ6FTmO2c98rP/ZjUF7l7AwDQYJKoZIhvcNAQEL
BQAwFDESMBAGA1UEAwwJbW5lbW9zLWRiMB4XDTI2MDEwODE1MTIxM1oXDTM2MDEw
NjE1MTIxM1owFDESMBAGA1UEAwwJbW5lbW9zLWRiMIIBIjANBgkqhkiG9w0BAQEF
AAOCAQ8AMIIBCgKCAQEAt68ZuuJCO6I/Zb6mr/cPSjvCsip/2HxkK1K93xvf71dW
SnmvQ4Ty+LeRkxOPcnOQrs3gR9XE2GeX5TlfEnNMOro7xm8Fckd+oZ5MurrUw399
fR51F1gRXSe2+kGiIVwrxUcKdoNbPfeB7wqlywpMshO+VtLsSJj76LEVT6P4RKPr
/U7p0/qQ/DxpLagcZMcWhlVstTiQNc/Rt371T7arrxKq1hDrs9VZX75tsAjoWDB2
OeNBX28Kr5OU5PLHKvMGnZnDrwItxIXdWtuGMXjxwQGZ5pYfHX8pk5KgAj4gWS0+
Dm4VV3Eu885H5oYe4QB5QDeZN3HxFk+KWJlsY7cKkQIDAQABo2QwYjAdBgNVHQ4E
FgQUgK0mQ/TdWImOw5Ga6wcSREHwFQAwHwYDVR0jBBgwFoAUgK0mQ/TdWImOw5Ga
6wcSREHwFQAwDwYDVR0TAQH/BAUwAwEB/zAPBgNVHREECDAGhwRU96zVMA0GCSqG
SIb3DQEBCwUAA4IBAQAHWlaiDjotSHT6MaibGSFClKAbXQ0HU7a4ZPVYuD5UAyi3
HCObBIzKP88H5HA/1Rt0uMtNIBjZIYL9I86+Cy9KCFzzeYQTy0C3ZdYd8+VSuTr3
4jTn5oAbnj3lTL/9bdG3OlbxajiDxWgaVKueXSEGqgZVzVihMbrtxVFEcQSUWTjY
z1v6T8OPUXw7BajsPR7tOToSsfAa7tucy2jxct323k7jQjhqxzOyrE5EPS2BTCdx
pbexxPeevO6znk0Qs5diS1Un2mwTi4zYTIIrQFwOaSdDd8Kh0nS08r3wIb6fFWIy
+fP/Mg+MjARXbuCiA1UAriANFdG0CUqp7hsd6aN2
-----END CERTIFICATE-----
